; Function Attrs: mustprogress uwtable
define internal void @_ZN12_GLOBAL__N_150HyperscanArgChecks_DeserializeDatabaseBadLen2_Test8TestBodyEv(ptr nonnull readnone align 8 captures(none) %0) unnamed_addr #7 align 2 personality ptr @__gxx_personality_v0 {
  %2 = alloca ptr, align 8
  %3 = alloca i64, align 8
  %4 = alloca ptr, align 8
  %5 = alloca i32, align 4
  %6 = alloca %"class.testing::AssertionResult", align 8
  %7 = alloca i32, align 4
  %8 = alloca %"class.testing::Message", align 8
  %9 = alloca %"class.testing::internal::AssertHelper", align 8
  call void @llvm.lifetime.start.p0(i64 8, ptr nonnull %2) #27
  store ptr null, ptr %2, align 8
  call void @llvm.lifetime.start.p0(i64 8, ptr nonnull %3) #27
  store i64 0, ptr %3, align 8
  call fastcc void @_ZN12_GLOBAL__N_122makeSerializedDatabaseEPPcPm(ptr noundef %2, ptr noundef %3)
  call void @llvm.lifetime.start.p0(i64 8, ptr nonnull %4) #27
  store ptr null, ptr %4, align 8
  call void @llvm.lifetime.start.p0(i64 4, ptr nonnull %5) #27
  %10 = load ptr, ptr %2, align 8
  %11 = load i64, ptr %3, align 8
  %12 = add i64 %11, 1
  %13 = call i32 @hs_deserialize_database(ptr noundef %10, i64 noundef %12, ptr noundef nonnull %4)
  store i32 %13, ptr %5, align 4
  call void @llvm.lifetime.start.p0(i64 16, ptr nonnull %6) #27
  call void @llvm.lifetime.start.p0(i64 4, ptr nonnull %7) #27
  store i32 -1, ptr %7, align 4
  call void @_ZN7testing8internal11CmpHelperEQIiiEENS_15AssertionResultEPKcS4_RKT_RKT0_(ptr dead_on_unwind nonnull writable sret(%"class.testing::AssertionResult") align 8 %6, ptr noundef nonnull @.str.324, ptr noundef nonnull @.str.302, ptr noundef nonnull align 4 dereferenceable(4) %7, ptr noundef nonnull align 4 dereferenceable(4) %5)
  call void @llvm.lifetime.end.p0(i64 4, ptr nonnull %7) #27
  %14 = load i8, ptr %6, align 8, !range !14, !noundef !15
  %15 = trunc nuw i8 %14 to i1
  br i1 %15, label %.critedge, label %16

16:                                               ; preds = %1
  call void @llvm.lifetime.start.p0(i64 8, ptr nonnull %8) #27
  invoke void @_ZN7testing7MessageC1Ev(ptr noundef nonnull align 8 dereferenceable(8) %8)
          to label %17 unwind label %54

17:                                               ; preds = %16
  call void @llvm.lifetime.start.p0(i64 8, ptr nonnull %9) #27
  %18 = getelementptr inbounds nuw i8, ptr %6, i64 8
  %19 = load ptr, ptr %18, align 8
  %.not.i.i = icmp eq ptr %19, null
  br i1 %.not.i.i, label %_ZNK7testing15AssertionResult15failure_messageEv.exit, label %20

20:                                               ; preds = %17
  %21 = load ptr, ptr %19, align 8
  br label %_ZNK7testing15AssertionResult15failure_messageEv.exit

_ZNK7testing15AssertionResult15failure_messageEv.exit: ; preds = %20, %17
  %22 = phi ptr [ %21, %20 ], [ @.str.292, %17 ]
  invoke void @_ZN7testing8internal12AssertHelperC1ENS_14TestPartResult4TypeEPKciS5_(ptr noundef nonnull align 8 dereferenceable(8) %9, i32 noundef 2, ptr noundef nonnull @.str.286, i32 noundef 1905, ptr noundef %22)
          to label %23 unwind label %56

23:                                               ; preds = %_ZNK7testing15AssertionResult15failure_messageEv.exit
  invoke void @_ZNK7testing8internal12AssertHelperaSERKNS_7MessageE(ptr noundef nonnull align 8 dereferenceable(8) %9, ptr noundef nonnull align 8 dereferenceable(8) %8)
          to label %24 unwind label %58

24:                                               ; preds = %23
  call void @_ZN7testing8internal12AssertHelperD1Ev(ptr noundef nonnull align 8 dereferenceable(8) %9) #27
  call void @llvm.lifetime.end.p0(i64 8, ptr nonnull %9) #27
  %25 = load ptr, ptr %8, align 8
  %.not.i.i.i = icmp eq ptr %25, null
  br i1 %.not.i.i.i, label %_ZN7testing7MessageD2Ev.exit, label %26

26:                                               ; preds = %24
  %27 = invoke noundef zeroext i1 @_ZN7testing8internal6IsTrueEb(i1 noundef zeroext true)
          to label %.noexc.i.i unwind label %35

.noexc.i.i:                                       ; preds = %26
  br i1 %27, label %28, label %_ZN7testing7MessageD2Ev.exit

28:                                               ; preds = %.noexc.i.i
  %29 = load ptr, ptr %8, align 8
  %30 = icmp eq ptr %29, null
  br i1 %30, label %_ZN7testing7MessageD2Ev.exit, label %31

31:                                               ; preds = %28
  %32 = load ptr, ptr %29, align 8
  %33 = getelementptr inbounds nuw i8, ptr %32, i64 8
  %34 = load ptr, ptr %33, align 8
  call void %34(ptr noundef nonnull align 8 dereferenceable(128) %29) #27
  br label %_ZN7testing7MessageD2Ev.exit

35:                                               ; preds = %26
  %36 = landingpad { ptr, i32 }
          catch ptr null
  %37 = extractvalue { ptr, i32 } %36, 0
  call void @__clang_call_terminate(ptr %37) #28
  unreachable

_ZN7testing7MessageD2Ev.exit:                     ; preds = %.noexc.i.i, %28, %31, %24
  call void @llvm.lifetime.end.p0(i64 8, ptr nonnull %8) #27
  %38 = load ptr, ptr %18, align 8
  %.not.i.i.i7 = icmp eq ptr %38, null
  br i1 %.not.i.i.i7, label %_ZN7testing15AssertionResultD2Ev.exit, label %39

39:                                               ; preds = %_ZN7testing7MessageD2Ev.exit
  %40 = invoke noundef zeroext i1 @_ZN7testing8internal6IsTrueEb(i1 noundef zeroext true)
          to label %.noexc.i.i8 unwind label %51

.noexc.i.i8:                                      ; preds = %39
  br i1 %40, label %41, label %_ZN7testing15AssertionResultD2Ev.exit

41:                                               ; preds = %.noexc.i.i8
  %42 = load ptr, ptr %18, align 8
  %43 = icmp eq ptr %42, null
  br i1 %43, label %_ZN7testing15AssertionResultD2Ev.exit, label %44

44:                                               ; preds = %41
  %45 = load ptr, ptr %42, align 8
  %46 = getelementptr inbounds nuw i8, ptr %42, i64 16
  %47 = icmp eq ptr %45, %46
  br i1 %47, label %_ZNKSt7__cxx1112basic_stringIcSt11char_traitsIcESaIcEE11_M_is_localEv.exit.thread.i.i.i.i.i, label %_ZNKSt7__cxx1112basic_stringIcSt11char_traitsIcESaIcEE11_M_is_localEv.exit.i.i.i.i.i

_ZNKSt7__cxx1112basic_stringIcSt11char_traitsIcESaIcEE11_M_is_localEv.exit.thread.i.i.i.i.i: ; preds = %44
  %48 = getelementptr inbounds nuw i8, ptr %42, i64 8
  %49 = load i64, ptr %48, align 8
  %50 = icmp ult i64 %49, 16
  call void @llvm.assume(i1 %50)
  br label %_ZNSt7__cxx1112basic_stringIcSt11char_traitsIcESaIcEED2Ev.exit.i.i.i

_ZNKSt7__cxx1112basic_stringIcSt11char_traitsIcESaIcEE11_M_is_localEv.exit.i.i.i.i.i: ; preds = %44
  call void @_ZdlPv(ptr noundef %45) #31
  br label %_ZNSt7__cxx1112basic_stringIcSt11char_traitsIcESaIcEED2Ev.exit.i.i.i

_ZNSt7__cxx1112basic_stringIcSt11char_traitsIcESaIcEED2Ev.exit.i.i.i: ; preds = %_ZNKSt7__cxx1112basic_stringIcSt11char_traitsIcESaIcEE11_M_is_localEv.exit.i.i.i.i.i, %_ZNKSt7__cxx1112basic_stringIcSt11char_traitsIcESaIcEE11_M_is_localEv.exit.thread.i.i.i.i.i
  call void @_ZdlPv(ptr noundef nonnull %42) #31
  br label %_ZN7testing15AssertionResultD2Ev.exit

51:                                               ; preds = %39
  %52 = landingpad { ptr, i32 }
          catch ptr null
  %53 = extractvalue { ptr, i32 } %52, 0
  call void @__clang_call_terminate(ptr %53) #28
  unreachable

_ZN7testing15AssertionResultD2Ev.exit:            ; preds = %.noexc.i.i8, %41, %_ZNSt7__cxx1112basic_stringIcSt11char_traitsIcESaIcEED2Ev.exit.i.i.i, %_ZN7testing7MessageD2Ev.exit
  call void @llvm.lifetime.end.p0(i64 16, ptr nonnull %6) #27
  br label %81

54:                                               ; preds = %16
  %55 = landingpad { ptr, i32 }
          cleanup
  br label %61

56:                                               ; preds = %_ZNK7testing15AssertionResult15failure_messageEv.exit
  %57 = landingpad { ptr, i32 }
          cleanup
  br label %60

58:                                               ; preds = %23
  %59 = landingpad { ptr, i32 }
          cleanup
  call void @_ZN7testing8internal12AssertHelperD1Ev(ptr noundef nonnull align 8 dereferenceable(8) %9) #27
  br label %60

60:                                               ; preds = %58, %56
  %.pn = phi { ptr, i32 } [ %59, %58 ], [ %57, %56 ]
  call void @llvm.lifetime.end.p0(i64 8, ptr nonnull %9) #27
  call void @_ZN7testing7MessageD2Ev(ptr noundef nonnull align 8 dereferenceable(8) %8) #27
  br label %61

61:                                               ; preds = %60, %54
  %.pn.pn = phi { ptr, i32 } [ %.pn, %60 ], [ %55, %54 ]
  call void @llvm.lifetime.end.p0(i64 8, ptr nonnull %8) #27
  call void @_ZN7testing15AssertionResultD2Ev(ptr noundef nonnull align 8 dereferenceable(16) %6) #27
  call void @llvm.lifetime.end.p0(i64 16, ptr nonnull %6) #27
  call void @llvm.lifetime.end.p0(i64 4, ptr nonnull %5) #27
  call void @llvm.lifetime.end.p0(i64 8, ptr nonnull %4) #27
  call void @llvm.lifetime.end.p0(i64 8, ptr nonnull %3) #27
  call void @llvm.lifetime.end.p0(i64 8, ptr nonnull %2) #27
  resume { ptr, i32 } %.pn.pn

.critedge:                                        ; preds = %1
  %62 = getelementptr inbounds nuw i8, ptr %6, i64 8
  %63 = load ptr, ptr %62, align 8
  %.not.i.i.i9 = icmp eq ptr %63, null
  br i1 %.not.i.i.i9, label %79, label %64

64:                                               ; preds = %.critedge
  %65 = invoke noundef zeroext i1 @_ZN7testing8internal6IsTrueEb(i1 noundef zeroext true)
          to label %.noexc.i.i10 unwind label %76

.noexc.i.i10:                                     ; preds = %64
  br i1 %65, label %66, label %79

66:                                               ; preds = %.noexc.i.i10
  %67 = load ptr, ptr %62, align 8
  %68 = icmp eq ptr %67, null
  br i1 %68, label %79, label %69

69:                                               ; preds = %66
  %70 = load ptr, ptr %67, align 8
  %71 = getelementptr inbounds nuw i8, ptr %67, i64 16
  %72 = icmp eq ptr %70, %71
  br i1 %72, label %_ZNKSt7__cxx1112basic_stringIcSt11char_traitsIcESaIcEE11_M_is_localEv.exit.thread.i.i.i.i.i13, label %_ZNKSt7__cxx1112basic_stringIcSt11char_traitsIcESaIcEE11_M_is_localEv.exit.i.i.i.i.i11

_ZNKSt7__cxx1112basic_stringIcSt11char_traitsIcESaIcEE11_M_is_localEv.exit.thread.i.i.i.i.i13: ; preds = %69
  %73 = getelementptr inbounds nuw i8, ptr %67, i64 8
  %74 = load i64, ptr %73, align 8
  %75 = icmp ult i64 %74, 16
  call void @llvm.assume(i1 %75)
  br label %_ZNSt7__cxx1112basic_stringIcSt11char_traitsIcESaIcEED2Ev.exit.i.i.i12

_ZNKSt7__cxx1112basic_stringIcSt11char_traitsIcESaIcEE11_M_is_localEv.exit.i.i.i.i.i11: ; preds = %69
  call void @_ZdlPv(ptr noundef %70) #31
  br label %_ZNSt7__cxx1112basic_stringIcSt11char_traitsIcESaIcEED2Ev.exit.i.i.i12

_ZNSt7__cxx1112basic_stringIcSt11char_traitsIcESaIcEED2Ev.exit.i.i.i12: ; preds = %_ZNKSt7__cxx1112basic_stringIcSt11char_traitsIcESaIcEE11_M_is_localEv.exit.i.i.i.i.i11, %_ZNKSt7__cxx1112basic_stringIcSt11char_traitsIcESaIcEE11_M_is_localEv.exit.thread.i.i.i.i.i13
  call void @_ZdlPv(ptr noundef nonnull %67) #31
  br label %79

76:                                               ; preds = %64
  %77 = landingpad { ptr, i32 }
          catch ptr null
  %78 = extractvalue { ptr, i32 } %77, 0
  call void @__clang_call_terminate(ptr %78) #28
  unreachable

79:                                               ; preds = %.noexc.i.i10, %66, %_ZNSt7__cxx1112basic_stringIcSt11char_traitsIcESaIcEED2Ev.exit.i.i.i12, %.critedge
  call void @llvm.lifetime.end.p0(i64 16, ptr nonnull %6) #27
  %80 = load ptr, ptr %2, align 8
  call void @free(ptr noundef %80) #27
  br label %81

81:                                               ; preds = %_ZN7testing15AssertionResultD2Ev.exit, %79
  call void @llvm.lifetime.end.p0(i64 4, ptr nonnull %5) #27
  call void @llvm.lifetime.end.p0(i64 8, ptr nonnull %4) #27
  call void @llvm.lifetime.end.p0(i64 8, ptr nonnull %3) #27
  call void @llvm.lifetime.end.p0(i64 8, ptr nonnull %2) #27
  ret void
}